; ModuleID = '7/584.c'
source_filename = "7/584.c"
target datalayout = "e-m:e-p270:32:32-p271:32:32-p272:64:64-i64:64-f80:128-n8:16:32:64-S128"
target triple = "x86_64-pc-linux-gnu"

@.str = private unnamed_addr constant [7 x i8] c"%s%s%s\00", align 1
@.str.1 = private unnamed_addr constant [3 x i8] c"%c\00", align 1
@.str.2 = private unnamed_addr constant [3 x i8] c"%s\00", align 1

; Function Attrs: noinline nounwind uwtable
define dso_local i32 @main() #0 {
  %1 = alloca i32, align 4
  %2 = alloca [256 x i8], align 16
  %3 = alloca [256 x i8], align 16
  %4 = alloca [256 x i8], align 16
  %5 = alloca i32, align 4
  %6 = alloca i32, align 4
  %7 = alloca i32, align 4
  %8 = alloca i32, align 4
  %9 = alloca i32, align 4
  %10 = alloca i32, align 4
  %11 = alloca i32, align 4
  store i32 0, i32* %1, align 4
  store i32 -1, i32* %11, align 4
  %12 = getelementptr inbounds [256 x i8], [256 x i8]* %3, i64 0, i64 0
  %13 = getelementptr inbounds [256 x i8], [256 x i8]* %2, i64 0, i64 0
  %14 = getelementptr inbounds [256 x i8], [256 x i8]* %4, i64 0, i64 0
  %15 = call i32 (i8*, ...) @__isoc99_scanf(i8* getelementptr inbounds ([7 x i8], [7 x i8]* @.str, i64 0, i64 0), i8* %12, i8* %13, i8* %14)
  %16 = getelementptr inbounds [256 x i8], [256 x i8]* %2, i64 0, i64 0
  %17 = call i64 @strlen(i8* %16) #3
  %18 = trunc i64 %17 to i32
  store i32 %18, i32* %5, align 4
  %19 = getelementptr inbounds [256 x i8], [256 x i8]* %3, i64 0, i64 0
  %20 = call i64 @strlen(i8* %19) #3
  %21 = trunc i64 %20 to i32
  store i32 %21, i32* %6, align 4
  %22 = getelementptr inbounds [256 x i8], [256 x i8]* %4, i64 0, i64 0
  %23 = call i64 @strlen(i8* %22) #3
  %24 = trunc i64 %23 to i32
  store i32 %24, i32* %8, align 4
  store i32 0, i32* %9, align 4
  br label %25

25:                                               ; preds = %62, %0
  %26 = load i32, i32* %9, align 4
  %27 = load i32, i32* %6, align 4
  %28 = icmp slt i32 %26, %27
  br i1 %28, label %29, label %65

29:                                               ; preds = %25
  store i32 0, i32* %7, align 4
  store i32 0, i32* %10, align 4
  br label %30

30:                                               ; preds = %52, %29
  %31 = load i32, i32* %10, align 4
  %32 = load i32, i32* %5, align 4
  %33 = icmp slt i32 %31, %32
  br i1 %33, label %34, label %55

34:                                               ; preds = %30
  %35 = load i32, i32* %9, align 4
  %36 = load i32, i32* %10, align 4
  %37 = add nsw i32 %35, %36
  %38 = sext i32 %37 to i64
  %39 = getelementptr inbounds [256 x i8], [256 x i8]* %3, i64 0, i64 %38
  %40 = load i8, i8* %39, align 1
  %41 = sext i8 %40 to i32
  %42 = load i32, i32* %10, align 4
  %43 = sext i32 %42 to i64
  %44 = getelementptr inbounds [256 x i8], [256 x i8]* %2, i64 0, i64 %43
  %45 = load i8, i8* %44, align 1
  %46 = sext i8 %45 to i32
  %47 = icmp eq i32 %41, %46
  br i1 %47, label %48, label %51

48:                                               ; preds = %34
  %49 = load i32, i32* %7, align 4
  %50 = add nsw i32 %49, 1
  store i32 %50, i32* %7, align 4
  br label %51

51:                                               ; preds = %48, %34
  br label %52

52:                                               ; preds = %51
  %53 = load i32, i32* %10, align 4
  %54 = add nsw i32 %53, 1
  store i32 %54, i32* %10, align 4
  br label %30

55:                                               ; preds = %30
  %56 = load i32, i32* %7, align 4
  %57 = load i32, i32* %5, align 4
  %58 = icmp eq i32 %56, %57
  br i1 %58, label %59, label %61

59:                                               ; preds = %55
  %60 = load i32, i32* %9, align 4
  store i32 %60, i32* %11, align 4
  br label %65

61:                                               ; preds = %55
  br label %62

62:                                               ; preds = %61
  %63 = load i32, i32* %9, align 4
  %64 = add nsw i32 %63, 1
  store i32 %64, i32* %9, align 4
  br label %25

65:                                               ; preds = %59, %25
  %66 = load i32, i32* %11, align 4
  %67 = icmp ne i32 %66, -1
  br i1 %67, label %68, label %104

68:                                               ; preds = %65
  store i32 0, i32* %9, align 4
  br label %69

69:                                               ; preds = %80, %68
  %70 = load i32, i32* %9, align 4
  %71 = load i32, i32* %11, align 4
  %72 = icmp slt i32 %70, %71
  br i1 %72, label %73, label %83

73:                                               ; preds = %69
  %74 = load i32, i32* %9, align 4
  %75 = sext i32 %74 to i64
  %76 = getelementptr inbounds [256 x i8], [256 x i8]* %3, i64 0, i64 %75
  %77 = load i8, i8* %76, align 1
  %78 = sext i8 %77 to i32
  %79 = call i32 (i8*, ...) @printf(i8* getelementptr inbounds ([3 x i8], [3 x i8]* @.str.1, i64 0, i64 0), i32 %78)
  br label %80

80:                                               ; preds = %73
  %81 = load i32, i32* %9, align 4
  %82 = add nsw i32 %81, 1
  store i32 %82, i32* %9, align 4
  br label %69

83:                                               ; preds = %69
  %84 = getelementptr inbounds [256 x i8], [256 x i8]* %4, i64 0, i64 0
  %85 = call i32 (i8*, ...) @printf(i8* getelementptr inbounds ([3 x i8], [3 x i8]* @.str.2, i64 0, i64 0), i8* %84)
  %86 = load i32, i32* %11, align 4
  %87 = load i32, i32* %8, align 4
  %88 = add nsw i32 %86, %87
  store i32 %88, i32* %9, align 4
  br label %89

89:                                               ; preds = %100, %83
  %90 = load i32, i32* %9, align 4
  %91 = load i32, i32* %6, align 4
  %92 = icmp slt i32 %90, %91
  br i1 %92, label %93, label %103

93:                                               ; preds = %89
  %94 = load i32, i32* %9, align 4
  %95 = sext i32 %94 to i64
  %96 = getelementptr inbounds [256 x i8], [256 x i8]* %3, i64 0, i64 %95
  %97 = load i8, i8* %96, align 1
  %98 = sext i8 %97 to i32
  %99 = call i32 (i8*, ...) @printf(i8* getelementptr inbounds ([3 x i8], [3 x i8]* @.str.1, i64 0, i64 0), i32 %98)
  br label %100

100:                                              ; preds = %93
  %101 = load i32, i32* %9, align 4
  %102 = add nsw i32 %101, 1
  store i32 %102, i32* %9, align 4
  br label %89

103:                                              ; preds = %89
  br label %107

104:                                              ; preds = %65
  %105 = getelementptr inbounds [256 x i8], [256 x i8]* %3, i64 0, i64 0
  %106 = call i32 @puts(i8* %105)
  br label %107

107:                                              ; preds = %104, %103
  ret i32 0
}

declare dso_local i32 @__isoc99_scanf(i8*, ...) #1

; Function Attrs: nounwind readonly
declare dso_local i64 @strlen(i8*) #2

declare dso_local i32 @printf(i8*, ...) #1

declare dso_local i32 @puts(i8*) #1


!llvm.module.flags = !{!0}
!llvm.ident = !{!1}

!0 = !{i32 1, !"wchar_size", i32 4}
!1 = !{!"clang version 10.0.0-4ubuntu1 "}
